target datalayout = "e-m:e-p270:32:32-p271:32:32-p272:64:64-i64:64-i128:128-f80:128-n8:16:32:64-S128"
target triple = "x86_64-pc-linux-gnu"

%struct.H5S_t = type { %struct.H5S_extent_t, %struct.H5S_select_t }
%struct.H5S_extent_t = type { %struct.H5O_shared_t, i32, i32, i64, i32, ptr, ptr }
%struct.H5O_shared_t = type { i32, ptr, i32, %union.anon }
%union.anon = type { %struct.H5O_mesg_loc_t }
%struct.H5O_mesg_loc_t = type { i32, i64 }
%struct.H5S_select_t = type { ptr, i8, [32 x i64], i64, %union.anon.0 }
%union.anon.0 = type { ptr }
%struct.H5S_pnt_list_t = type { [32 x i64], [32 x i64], ptr, ptr, i64, ptr }
%struct.H5S_pnt_node_t = type { ptr, [0 x i64] }

@H5S_init_g = external global i8, align 1
@H5_libterm_g = external global i8, align 1
@.str = private unnamed_addr constant [102 x i8] c"generated/home/dtcxzyw/WorkSpace/Projects/compilers/llvm-opt-benchmark/bench/hdf5/hdf5/src/H5Spoint.c\00", align 1
@H5E_DATASPACE_g = external global i64, align 8
@H5E_BADRANGE_g = external global i64, align 8
@__func__.H5S__point_project_scalar = private unnamed_addr constant [26 x i8] c"H5S__point_project_scalar\00", align 1
@.str.48 = private unnamed_addr constant [55 x i8] c"point selection of one element has more than one node!\00", align 1

; Function Attrs: nounwind uwtable
define internal i32 @H5S__point_project_scalar(ptr noundef %0, ptr noundef %1) #0 {
  %3 = alloca ptr, align 8
  %4 = alloca ptr, align 8
  %5 = alloca ptr, align 8
  %6 = alloca i32, align 4
  %7 = alloca i8, align 1
  store ptr %0, ptr %3, align 8, !tbaa !3
  store ptr %1, ptr %4, align 8, !tbaa !51
  call void @llvm.lifetime.start.p0(i64 8, ptr %5) #7
  call void @llvm.lifetime.start.p0(i64 4, ptr %6) #7
  store i32 0, ptr %6, align 4, !tbaa !10
  call void @llvm.lifetime.start.p0(i64 1, ptr %7) #7
  store i8 0, ptr %7, align 1, !tbaa !8
  %8 = load i8, ptr @H5S_init_g, align 1, !tbaa !8, !range !12, !noundef !13
  %9 = trunc i8 %8 to i1
  br i1 %9, label %14, label %10

10:                                               ; preds = %2
  %11 = load i8, ptr @H5_libterm_g, align 1, !tbaa !8, !range !12, !noundef !13
  %12 = trunc i8 %11 to i1
  %13 = xor i1 %12, true
  br label %14

14:                                               ; preds = %10, %2
  %15 = phi i1 [ true, %2 ], [ %13, %10 ]
  %16 = xor i1 %15, true
  %17 = xor i1 %16, true
  %18 = zext i1 %17 to i32
  %19 = sext i32 %18 to i64
  %20 = call i64 @llvm.expect.i64(i64 %19, i64 1)
  %21 = icmp ne i64 %20, 0
  br i1 %21, label %22, label %67

22:                                               ; preds = %14
  %23 = load ptr, ptr %3, align 8, !tbaa !3
  %24 = getelementptr inbounds nuw %struct.H5S_t, ptr %23, i32 0, i32 1
  %25 = getelementptr inbounds nuw %struct.H5S_select_t, ptr %24, i32 0, i32 4
  %26 = load ptr, ptr %25, align 8, !tbaa !14
  %27 = getelementptr inbounds nuw %struct.H5S_pnt_list_t, ptr %26, i32 0, i32 2
  %28 = load ptr, ptr %27, align 8, !tbaa !35
  store ptr %28, ptr %5, align 8, !tbaa !38
  %29 = load ptr, ptr %5, align 8, !tbaa !38
  %30 = getelementptr inbounds nuw %struct.H5S_pnt_node_t, ptr %29, i32 0, i32 0
  %31 = load ptr, ptr %30, align 8, !tbaa !38
  %32 = icmp ne ptr %31, null
  br i1 %32, label %33, label %52

33:                                               ; preds = %22
  br label %34

34:                                               ; preds = %33
  br label %35

35:                                               ; preds = %34
  br label %36

36:                                               ; preds = %35
  %37 = load i64, ptr @H5E_DATASPACE_g, align 8, !tbaa !23
  %38 = load i64, ptr @H5E_BADRANGE_g, align 8, !tbaa !23
  %39 = call i32 (ptr, ptr, i32, i64, i64, ptr, ...) @H5E_printf_stack(ptr noundef @.str, ptr noundef @__func__.H5S__point_project_scalar, i32 noundef 2256, i64 noundef %37, i64 noundef %38, ptr noundef @.str.48)
  br label %40

40:                                               ; preds = %36
  br label %41

41:                                               ; preds = %40
  store i8 1, ptr %7, align 1, !tbaa !8
  %42 = load i8, ptr %7, align 1, !tbaa !8, !range !12, !noundef !13
  %43 = trunc i8 %42 to i1
  %44 = zext i1 %43 to i8
  store i8 %44, ptr %7, align 1, !tbaa !8
  br label %45

45:                                               ; preds = %41
  br label %46

46:                                               ; preds = %45
  br label %47

47:                                               ; preds = %46
  store i32 -1, ptr %6, align 4, !tbaa !10
  br label %66

48:                                               ; No predecessors!
  br label %49

49:                                               ; preds = %48
  br label %50

50:                                               ; preds = %49
  br label %51

51:                                               ; preds = %50
  br label %52

52:                                               ; preds = %51, %22
  %53 = load ptr, ptr %3, align 8, !tbaa !3
  %54 = getelementptr inbounds nuw %struct.H5S_t, ptr %53, i32 0, i32 0
  %55 = getelementptr inbounds nuw %struct.H5S_extent_t, ptr %54, i32 0, i32 4
  %56 = load i32, ptr %55, align 8, !tbaa !15
  %57 = load ptr, ptr %3, align 8, !tbaa !3
  %58 = getelementptr inbounds nuw %struct.H5S_t, ptr %57, i32 0, i32 0
  %59 = getelementptr inbounds nuw %struct.H5S_extent_t, ptr %58, i32 0, i32 5
  %60 = load ptr, ptr %59, align 8, !tbaa !25
  %61 = load ptr, ptr %5, align 8, !tbaa !38
  %62 = getelementptr inbounds nuw %struct.H5S_pnt_node_t, ptr %61, i32 0, i32 1
  %63 = getelementptr inbounds [0 x i64], ptr %62, i64 0, i64 0
  %64 = call i64 @H5VM_array_offset(i32 noundef %56, ptr noundef %60, ptr noundef %63)
  %65 = load ptr, ptr %4, align 8, !tbaa !51
  store i64 %64, ptr %65, align 8, !tbaa !23
  br label %66

66:                                               ; preds = %52, %47
  br label %67

67:                                               ; preds = %66, %14
  %68 = load i32, ptr %6, align 4, !tbaa !10
  call void @llvm.lifetime.end.p0(i64 1, ptr %7) #7
  call void @llvm.lifetime.end.p0(i64 4, ptr %6) #7
  call void @llvm.lifetime.end.p0(i64 8, ptr %5) #7
  ret i32 %68
}