; Function Attrs: nounwind uwtable
define internal range(i32 -1, 1) i32 @H5S__point_project_scalar(ptr noundef readonly captures(none) %0, ptr noundef writeonly captures(none) %1) #0 {
  %3 = load i8, ptr @H5S_init_g, align 1, !tbaa !3, !range !7, !noundef !8
  %4 = trunc nuw i8 %3 to i1
  %5 = load i8, ptr @H5_libterm_g, align 1, !range !7
  %6 = trunc nuw i8 %5 to i1
  %7 = xor i1 %6, true
  %8 = select i1 %4, i1 true, i1 %7
  br i1 %8, label %9, label %26, !prof !9

9:                                                ; preds = %2
  %10 = getelementptr inbounds nuw i8, ptr %0, i64 360
  %11 = load ptr, ptr %10, align 8, !tbaa !10
  %12 = getelementptr inbounds nuw i8, ptr %11, i64 512
  %13 = load ptr, ptr %12, align 8, !tbaa !22
  %14 = load ptr, ptr %13, align 8, !tbaa !25
  %.not = icmp eq ptr %14, null
  br i1 %.not, label %19, label %15

15:                                               ; preds = %9
  %16 = load i64, ptr @H5E_DATASPACE_g, align 8, !tbaa !21
  %17 = load i64, ptr @H5E_BADRANGE_g, align 8, !tbaa !21
  %18 = tail call i32 (ptr, ptr, i32, i64, i64, ptr, ...) @H5E_printf_stack(ptr noundef nonnull @.str, ptr noundef nonnull @__func__.H5S__point_project_scalar, i32 noundef 2256, i64 noundef %16, i64 noundef %17, ptr noundef nonnull @.str.48) #15
  br label %26

19:                                               ; preds = %9
  %20 = getelementptr inbounds nuw i8, ptr %0, i64 56
  %21 = load i32, ptr %20, align 8, !tbaa !11
  %22 = getelementptr inbounds nuw i8, ptr %0, i64 64
  %23 = load ptr, ptr %22, align 8, !tbaa !28
  %24 = getelementptr inbounds nuw i8, ptr %13, i64 8
  %25 = tail call i64 @H5VM_array_offset(i32 noundef %21, ptr noundef %23, ptr noundef nonnull %24) #15
  store i64 %25, ptr %1, align 8, !tbaa !21
  br label %26

26:                                               ; preds = %15, %19, %2
  %.0 = phi i32 [ -1, %15 ], [ 0, %19 ], [ 0, %2 ]
  ret i32 %.0
}